target datalayout = "e-m:e-p270:32:32-p271:32:32-p272:64:64-i64:64-i128:128-f80:128-n8:16:32:64-S128"
target triple = "x86_64-pc-linux-gnu"

%struct.VP8Residual = type { i32, i32, ptr, i32, ptr, ptr, ptr }

@VP8EncBands = hidden constant [17 x i8] c"\00\01\02\03\06\04\05\06\06\06\06\06\06\06\06\07\00", align 16

; Function Attrs: inlinehint nounwind uwtable
define internal i32 @VP8LevelCost(ptr noundef %0, i32 noundef %1) #4 {
  %3 = alloca ptr, align 8
  %4 = alloca i32, align 4
  store ptr %0, ptr %3, align 8, !tbaa !21
  store i32 %1, ptr %4, align 4, !tbaa !7
  %5 = load i32, ptr %4, align 4, !tbaa !7
  %6 = sext i32 %5 to i64
  %7 = getelementptr inbounds [2048 x i16], ptr @VP8LevelFixedCosts, i64 0, i64 %6
  %8 = load i16, ptr %7, align 2, !tbaa !24
  %9 = zext i16 %8 to i32
  %10 = load ptr, ptr %3, align 8, !tbaa !21
  %11 = load i32, ptr %4, align 4, !tbaa !7
  %12 = icmp sgt i32 %11, 67
  br i1 %12, label %13, label %14

13:                                               ; preds = %2
  br label %16

14:                                               ; preds = %2
  %15 = load i32, ptr %4, align 4, !tbaa !7
  br label %16

16:                                               ; preds = %14, %13
  %17 = phi i32 [ 67, %13 ], [ %15, %14 ]
  %18 = sext i32 %17 to i64
  %19 = getelementptr inbounds i16, ptr %10, i64 %18
  %20 = load i16, ptr %19, align 2, !tbaa !24
  %21 = zext i16 %20 to i32
  %22 = add nsw i32 %9, %21
  ret i32 %22
}

; Function Attrs: inlinehint nounwind uwtable
define internal i32 @VP8BitCost(i32 noundef %0, i8 noundef zeroext %1) #4 {
  %3 = alloca i32, align 4
  %4 = alloca i8, align 1
  store i32 %0, ptr %3, align 4, !tbaa !7
  store i8 %1, ptr %4, align 1, !tbaa !18
  %5 = load i32, ptr %3, align 4, !tbaa !7
  %6 = icmp ne i32 %5, 0
  br i1 %6, label %13, label %7

7:                                                ; preds = %2
  %8 = load i8, ptr %4, align 1, !tbaa !18
  %9 = zext i8 %8 to i64
  %10 = getelementptr inbounds nuw [256 x i16], ptr @VP8EntropyCost, i64 0, i64 %9
  %11 = load i16, ptr %10, align 2, !tbaa !24
  %12 = zext i16 %11 to i32
  br label %21

13:                                               ; preds = %2
  %14 = load i8, ptr %4, align 1, !tbaa !18
  %15 = zext i8 %14 to i32
  %16 = sub nsw i32 255, %15
  %17 = sext i32 %16 to i64
  %18 = getelementptr inbounds [256 x i16], ptr @VP8EntropyCost, i64 0, i64 %17
  %19 = load i16, ptr %18, align 2, !tbaa !24
  %20 = zext i16 %19 to i32
  br label %21

21:                                               ; preds = %13, %7
  %22 = phi i32 [ %12, %7 ], [ %20, %13 ]
  ret i32 %22
}

; Function Attrs: nounwind uwtable
define internal i32 @GetResidualCost_C(i32 noundef %0, ptr noundef %1) #0 {
  %3 = alloca i32, align 4
  %4 = alloca i32, align 4
  %5 = alloca ptr, align 8
  %6 = alloca i32, align 4
  %7 = alloca i32, align 4
  %8 = alloca ptr, align 8
  %9 = alloca ptr, align 8
  %10 = alloca i32, align 4
  %11 = alloca i32, align 4
  %12 = alloca i32, align 4
  %13 = alloca i32, align 4
  %14 = alloca i32, align 4
  %15 = alloca i32, align 4
  %16 = alloca i32, align 4
  %17 = alloca i32, align 4
  store i32 %0, ptr %4, align 4, !tbaa !7
  store ptr %1, ptr %5, align 8, !tbaa !9
  call void @llvm.lifetime.start.p0(i64 4, ptr %6) #6
  %18 = load ptr, ptr %5, align 8, !tbaa !9
  %19 = getelementptr inbounds nuw %struct.VP8Residual, ptr %18, i32 0, i32 0
  %20 = load i32, ptr %19, align 8, !tbaa !11
  store i32 %20, ptr %6, align 4, !tbaa !7
  call void @llvm.lifetime.start.p0(i64 4, ptr %7) #6
  %21 = load ptr, ptr %5, align 8, !tbaa !9
  %22 = getelementptr inbounds nuw %struct.VP8Residual, ptr %21, i32 0, i32 4
  %23 = load ptr, ptr %22, align 8, !tbaa !17
  %24 = load i32, ptr %6, align 4, !tbaa !7
  %25 = sext i32 %24 to i64
  %26 = getelementptr inbounds [3 x [11 x i8]], ptr %23, i64 %25
  %27 = load i32, ptr %4, align 4, !tbaa !7
  %28 = sext i32 %27 to i64
  %29 = getelementptr inbounds [3 x [11 x i8]], ptr %26, i64 0, i64 %28
  %30 = getelementptr inbounds [11 x i8], ptr %29, i64 0, i64 0
  %31 = load i8, ptr %30, align 1, !tbaa !18
  %32 = zext i8 %31 to i32
  store i32 %32, ptr %7, align 4, !tbaa !7
  call void @llvm.lifetime.start.p0(i64 8, ptr %8) #6
  %33 = load ptr, ptr %5, align 8, !tbaa !9
  %34 = getelementptr inbounds nuw %struct.VP8Residual, ptr %33, i32 0, i32 6
  %35 = load ptr, ptr %34, align 8, !tbaa !19
  store ptr %35, ptr %8, align 8, !tbaa !20
  call void @llvm.lifetime.start.p0(i64 8, ptr %9) #6
  %36 = load ptr, ptr %8, align 8, !tbaa !20
  %37 = load i32, ptr %6, align 4, !tbaa !7
  %38 = sext i32 %37 to i64
  %39 = getelementptr inbounds [3 x ptr], ptr %36, i64 %38
  %40 = load i32, ptr %4, align 4, !tbaa !7
  %41 = sext i32 %40 to i64
  %42 = getelementptr inbounds [3 x ptr], ptr %39, i64 0, i64 %41
  %43 = load ptr, ptr %42, align 8, !tbaa !21
  store ptr %43, ptr %9, align 8, !tbaa !21
  call void @llvm.lifetime.start.p0(i64 4, ptr %10) #6
  %44 = load i32, ptr %4, align 4, !tbaa !7
  %45 = icmp eq i32 %44, 0
  br i1 %45, label %46, label %50

46:                                               ; preds = %2
  %47 = load i32, ptr %7, align 4, !tbaa !7
  %48 = trunc i32 %47 to i8
  %49 = call i32 @VP8BitCost(i32 noundef 1, i8 noundef zeroext %48)
  br label %51

50:                                               ; preds = %2
  br label %51

51:                                               ; preds = %50, %46
  %52 = phi i32 [ %49, %46 ], [ 0, %50 ]
  store i32 %52, ptr %10, align 4, !tbaa !7
  %53 = load ptr, ptr %5, align 8, !tbaa !9
  %54 = getelementptr inbounds nuw %struct.VP8Residual, ptr %53, i32 0, i32 1
  %55 = load i32, ptr %54, align 4, !tbaa !22
  %56 = icmp slt i32 %55, 0
  br i1 %56, label %57, label %61

57:                                               ; preds = %51
  %58 = load i32, ptr %7, align 4, !tbaa !7
  %59 = trunc i32 %58 to i8
  %60 = call i32 @VP8BitCost(i32 noundef 0, i8 noundef zeroext %59)
  store i32 %60, ptr %3, align 4
  store i32 1, ptr %11, align 4
  br label %148

61:                                               ; preds = %51
  br label %62

62:                                               ; preds = %99, %61
  %63 = load i32, ptr %6, align 4, !tbaa !7
  %64 = load ptr, ptr %5, align 8, !tbaa !9
  %65 = getelementptr inbounds nuw %struct.VP8Residual, ptr %64, i32 0, i32 1
  %66 = load i32, ptr %65, align 4, !tbaa !22
  %67 = icmp slt i32 %63, %66
  br i1 %67, label %68, label %102

68:                                               ; preds = %62
  call void @llvm.lifetime.start.p0(i64 4, ptr %12) #6
  %69 = load ptr, ptr %5, align 8, !tbaa !9
  %70 = getelementptr inbounds nuw %struct.VP8Residual, ptr %69, i32 0, i32 2
  %71 = load ptr, ptr %70, align 8, !tbaa !23
  %72 = load i32, ptr %6, align 4, !tbaa !7
  %73 = sext i32 %72 to i64
  %74 = getelementptr inbounds i16, ptr %71, i64 %73
  %75 = load i16, ptr %74, align 2, !tbaa !24
  %76 = sext i16 %75 to i32
  %77 = call i32 @llvm.abs.i32(i32 %76, i1 true)
  store i32 %77, ptr %12, align 4, !tbaa !7
  call void @llvm.lifetime.start.p0(i64 4, ptr %13) #6
  %78 = load i32, ptr %12, align 4, !tbaa !7
  %79 = icmp sge i32 %78, 2
  br i1 %79, label %80, label %81

80:                                               ; preds = %68
  br label %83

81:                                               ; preds = %68
  %82 = load i32, ptr %12, align 4, !tbaa !7
  br label %83

83:                                               ; preds = %81, %80
  %84 = phi i32 [ 2, %80 ], [ %82, %81 ]
  store i32 %84, ptr %13, align 4, !tbaa !7
  %85 = load ptr, ptr %9, align 8, !tbaa !21
  %86 = load i32, ptr %12, align 4, !tbaa !7
  %87 = call i32 @VP8LevelCost(ptr noundef %85, i32 noundef %86)
  %88 = load i32, ptr %10, align 4, !tbaa !7
  %89 = add nsw i32 %88, %87
  store i32 %89, ptr %10, align 4, !tbaa !7
  %90 = load ptr, ptr %8, align 8, !tbaa !20
  %91 = load i32, ptr %6, align 4, !tbaa !7
  %92 = add nsw i32 %91, 1
  %93 = sext i32 %92 to i64
  %94 = getelementptr inbounds [3 x ptr], ptr %90, i64 %93
  %95 = load i32, ptr %13, align 4, !tbaa !7
  %96 = sext i32 %95 to i64
  %97 = getelementptr inbounds [3 x ptr], ptr %94, i64 0, i64 %96
  %98 = load ptr, ptr %97, align 8, !tbaa !21
  store ptr %98, ptr %9, align 8, !tbaa !21
  call void @llvm.lifetime.end.p0(i64 4, ptr %13) #6
  call void @llvm.lifetime.end.p0(i64 4, ptr %12) #6
  br label %99

99:                                               ; preds = %83
  %100 = load i32, ptr %6, align 4, !tbaa !7
  %101 = add nsw i32 %100, 1
  store i32 %101, ptr %6, align 4, !tbaa !7
  br label %62, !llvm.loop !26

102:                                              ; preds = %62
  call void @llvm.lifetime.start.p0(i64 4, ptr %14) #6
  %103 = load ptr, ptr %5, align 8, !tbaa !9
  %104 = getelementptr inbounds nuw %struct.VP8Residual, ptr %103, i32 0, i32 2
  %105 = load ptr, ptr %104, align 8, !tbaa !23
  %106 = load i32, ptr %6, align 4, !tbaa !7
  %107 = sext i32 %106 to i64
  %108 = getelementptr inbounds i16, ptr %105, i64 %107
  %109 = load i16, ptr %108, align 2, !tbaa !24
  %110 = sext i16 %109 to i32
  %111 = call i32 @llvm.abs.i32(i32 %110, i1 true)
  store i32 %111, ptr %14, align 4, !tbaa !7
  %112 = load ptr, ptr %9, align 8, !tbaa !21
  %113 = load i32, ptr %14, align 4, !tbaa !7
  %114 = call i32 @VP8LevelCost(ptr noundef %112, i32 noundef %113)
  %115 = load i32, ptr %10, align 4, !tbaa !7
  %116 = add nsw i32 %115, %114
  store i32 %116, ptr %10, align 4, !tbaa !7
  %117 = load i32, ptr %6, align 4, !tbaa !7
  %118 = icmp slt i32 %117, 15
  br i1 %118, label %119, label %146

119:                                              ; preds = %102
  call void @llvm.lifetime.start.p0(i64 4, ptr %15) #6
  %120 = load i32, ptr %6, align 4, !tbaa !7
  %121 = add nsw i32 %120, 1
  %122 = sext i32 %121 to i64
  %123 = getelementptr inbounds [17 x i8], ptr @VP8EncBands, i64 0, i64 %122
  %124 = load i8, ptr %123, align 1, !tbaa !18
  %125 = zext i8 %124 to i32
  store i32 %125, ptr %15, align 4, !tbaa !7
  call void @llvm.lifetime.start.p0(i64 4, ptr %16) #6
  %126 = load i32, ptr %14, align 4, !tbaa !7
  %127 = icmp eq i32 %126, 1
  %128 = select i1 %127, i32 1, i32 2
  store i32 %128, ptr %16, align 4, !tbaa !7
  call void @llvm.lifetime.start.p0(i64 4, ptr %17) #6
  %129 = load ptr, ptr %5, align 8, !tbaa !9
  %130 = getelementptr inbounds nuw %struct.VP8Residual, ptr %129, i32 0, i32 4
  %131 = load ptr, ptr %130, align 8, !tbaa !17
  %132 = load i32, ptr %15, align 4, !tbaa !7
  %133 = sext i32 %132 to i64
  %134 = getelementptr inbounds [3 x [11 x i8]], ptr %131, i64 %133
  %135 = load i32, ptr %16, align 4, !tbaa !7
  %136 = sext i32 %135 to i64
  %137 = getelementptr inbounds [3 x [11 x i8]], ptr %134, i64 0, i64 %136
  %138 = getelementptr inbounds [11 x i8], ptr %137, i64 0, i64 0
  %139 = load i8, ptr %138, align 1, !tbaa !18
  %140 = zext i8 %139 to i32
  store i32 %140, ptr %17, align 4, !tbaa !7
  %141 = load i32, ptr %17, align 4, !tbaa !7
  %142 = trunc i32 %141 to i8
  %143 = call i32 @VP8BitCost(i32 noundef 0, i8 noundef zeroext %142)
  %144 = load i32, ptr %10, align 4, !tbaa !7
  %145 = add nsw i32 %144, %143
  store i32 %145, ptr %10, align 4, !tbaa !7
  call void @llvm.lifetime.end.p0(i64 4, ptr %17) #6
  call void @llvm.lifetime.end.p0(i64 4, ptr %16) #6
  call void @llvm.lifetime.end.p0(i64 4, ptr %15) #6
  br label %146

146:                                              ; preds = %119, %102
  call void @llvm.lifetime.end.p0(i64 4, ptr %14) #6
  %147 = load i32, ptr %10, align 4, !tbaa !7
  store i32 %147, ptr %3, align 4
  store i32 1, ptr %11, align 4
  br label %148

148:                                              ; preds = %146, %57
  call void @llvm.lifetime.end.p0(i64 4, ptr %10) #6
  call void @llvm.lifetime.end.p0(i64 8, ptr %9) #6
  call void @llvm.lifetime.end.p0(i64 8, ptr %8) #6
  call void @llvm.lifetime.end.p0(i64 4, ptr %7) #6
  call void @llvm.lifetime.end.p0(i64 4, ptr %6) #6
  %149 = load i32, ptr %3, align 4
  ret i32 %149
}